target datalayout = "e-m:e-p270:32:32-p271:32:32-p272:64:64-i64:64-i128:128-f80:128-n8:16:32:64-S128"
target triple = "x86_64-pc-linux-gnu"

; Function Attrs: null_pointer_is_valid sspstrong uwtable
define internal i32 @content_data_dissector(ptr noundef %0, ptr noundef %1, ptr noundef %2, i32 noundef %3, i32 noundef %4, i8 noundef zeroext %5) #0 {
  %7 = alloca ptr, align 8
  %8 = alloca ptr, align 8
  %9 = alloca ptr, align 8
  %10 = alloca i32, align 4
  %11 = alloca i32, align 4
  %12 = alloca i8, align 1
  %13 = alloca i32, align 4
  %14 = alloca i8, align 1
  store ptr %0, ptr %7, align 8
  store ptr %1, ptr %8, align 8
  store ptr %2, ptr %9, align 8
  store i32 %3, ptr %10, align 4
  store i32 %4, ptr %11, align 4
  store i8 %5, ptr %12, align 1
  call void @llvm.lifetime.start.p0(i64 4, ptr %13) #9
  call void @llvm.lifetime.start.p0(i64 1, ptr %14) #9
  store i8 0, ptr %14, align 1
  %15 = load ptr, ptr %7, align 8
  %16 = load i32, ptr %10, align 4
  %17 = call i32 @tvb_reported_length_remaining(ptr noundef %15, i32 noundef %16)
  %18 = icmp ne i32 %17, 0
  br i1 %18, label %19, label %57

19:                                               ; preds = %6
  %20 = load ptr, ptr %7, align 8
  %21 = load i32, ptr %10, align 4
  %22 = call i32 @tvb_captured_length_remaining(ptr noundef %20, i32 noundef %21)
  store i32 %22, ptr %13, align 4
  %23 = load i32, ptr %11, align 4
  %24 = icmp sge i32 %23, 0
  br i1 %24, label %25, label %34

25:                                               ; preds = %19
  %26 = load i32, ptr %13, align 4
  %27 = load i32, ptr %11, align 4
  %28 = add i32 %27, 2
  %29 = icmp sge i32 %26, %28
  br i1 %29, label %30, label %32

30:                                               ; preds = %25
  %31 = load i32, ptr %11, align 4
  store i32 %31, ptr %13, align 4
  br label %33

32:                                               ; preds = %25
  store i8 1, ptr %14, align 1
  br label %33

33:                                               ; preds = %32, %30
  br label %34

34:                                               ; preds = %33, %19
  %35 = load ptr, ptr %7, align 8
  %36 = load ptr, ptr %8, align 8
  %37 = load ptr, ptr %9, align 8
  %38 = load i32, ptr %10, align 4
  %39 = load i32, ptr %13, align 4
  %40 = load i8, ptr %12, align 1
  call void @dissect_value(ptr noundef %35, ptr noundef %36, ptr noundef %37, i32 noundef %38, i32 noundef %39, i8 noundef zeroext %40, i1 noundef zeroext true)
  %41 = load i32, ptr %13, align 4
  %42 = icmp sgt i32 %41, 0
  br i1 %42, label %43, label %56

43:                                               ; preds = %34
  %44 = load i8, ptr %14, align 1, !range !6, !noundef !7
  %45 = trunc i8 %44 to i1
  br i1 %45, label %51, label %46

46:                                               ; preds = %43
  %47 = load i32, ptr %13, align 4
  %48 = add i32 %47, 2
  %49 = load i32, ptr %10, align 4
  %50 = add i32 %49, %48
  store i32 %50, ptr %10, align 4
  br label %55

51:                                               ; preds = %43
  %52 = load i32, ptr %13, align 4
  %53 = load i32, ptr %10, align 4
  %54 = add i32 %53, %52
  store i32 %54, ptr %10, align 4
  br label %55

55:                                               ; preds = %51, %46
  br label %56

56:                                               ; preds = %55, %34
  br label %57

57:                                               ; preds = %56, %6
  %58 = load i32, ptr %10, align 4
  call void @llvm.lifetime.end.p0(i64 1, ptr %14) #9
  call void @llvm.lifetime.end.p0(i64 4, ptr %13) #9
  ret i32 %58
}