; Function Attrs: null_pointer_is_valid sspstrong uwtable
define internal fastcc i32 @content_data_dissector(ptr noundef %0, ptr noundef %1, ptr noundef %2, i32 noundef %3, i32 noundef %4, i8 noundef zeroext %5) unnamed_addr #0 {
  %7 = tail call i32 @tvb_reported_length_remaining(ptr noundef %0, i32 noundef %3)
  %.not = icmp eq i32 %7, 0
  br i1 %.not, label %19, label %8

8:                                                ; preds = %6
  %9 = tail call i32 @tvb_captured_length_remaining(ptr noundef %0, i32 noundef %3)
  %10 = icmp sgt i32 %4, -1
  %11 = add nuw i32 %4, 2
  %.not24 = icmp slt i32 %9, %11
  %. = select i1 %.not24, i32 %9, i32 %4
  %.020 = select i1 %10, i32 %., i32 %9
  tail call fastcc void @dissect_value(ptr noundef %0, ptr noundef %1, ptr noundef %2, i32 noundef %3, i32 noundef %.020, i8 noundef zeroext %5, i1 noundef zeroext true)
  %12 = icmp sgt i32 %.020, 0
  br i1 %12, label %13, label %19

13:                                               ; preds = %8
  %.0 = select i1 %10, i1 %.not24, i1 false
  br i1 %.0, label %17, label %14

14:                                               ; preds = %13
  %15 = add i32 %3, 2
  %16 = add i32 %15, %.020
  br label %19

17:                                               ; preds = %13
  %18 = add i32 %., %3
  br label %19

19:                                               ; preds = %8, %17, %14, %6
  %.021 = phi i32 [ %18, %17 ], [ %16, %14 ], [ %3, %8 ], [ %3, %6 ]
  ret i32 %.021
}